; ModuleID = '50/1426.c'
source_filename = "50/1426.c"
target datalayout = "e-m:e-p270:32:32-p271:32:32-p272:64:64-i64:64-f80:128-n8:16:32:64-S128"
target triple = "x86_64-pc-linux-gnu"

@.str = private unnamed_addr constant [3 x i8] c"%d\00", align 1
@.str.1 = private unnamed_addr constant [3 x i8] c"1\0A\00", align 1
@.str.2 = private unnamed_addr constant [3 x i8] c"2\0A\00", align 1
@.str.3 = private unnamed_addr constant [3 x i8] c"3\0A\00", align 1
@.str.4 = private unnamed_addr constant [3 x i8] c"4\0A\00", align 1
@.str.5 = private unnamed_addr constant [3 x i8] c"5\0A\00", align 1
@.str.6 = private unnamed_addr constant [3 x i8] c"6\0A\00", align 1
@.str.7 = private unnamed_addr constant [3 x i8] c"7\0A\00", align 1
@.str.8 = private unnamed_addr constant [3 x i8] c"8\0A\00", align 1
@.str.9 = private unnamed_addr constant [3 x i8] c"9\0A\00", align 1
@.str.10 = private unnamed_addr constant [4 x i8] c"10\0A\00", align 1
@.str.11 = private unnamed_addr constant [4 x i8] c"11\0A\00", align 1
@.str.12 = private unnamed_addr constant [4 x i8] c"12\0A\00", align 1

; Function Attrs: noinline nounwind uwtable
define dso_local i32 @main() #0 {
  %1 = alloca i32, align 4
  %2 = alloca i32, align 4
  %3 = alloca i32, align 4
  %4 = alloca i32, align 4
  store i32 0, i32* %1, align 4
  %5 = call i32 (i8*, ...) @__isoc99_scanf(i8* getelementptr inbounds ([3 x i8], [3 x i8]* @.str, i64 0, i64 0), i32* %2)
  store i32 5, i32* %3, align 4
  %6 = load i32, i32* %2, align 4
  %7 = load i32, i32* %3, align 4
  %8 = add nsw i32 %6, %7
  %9 = icmp eq i32 %8, 5
  br i1 %9, label %10, label %12

10:                                               ; preds = %0
  %11 = call i32 (i8*, ...) @printf(i8* getelementptr inbounds ([3 x i8], [3 x i8]* @.str.1, i64 0, i64 0))
  br label %12

12:                                               ; preds = %10, %0
  %13 = load i32, i32* %2, align 4
  %14 = load i32, i32* %3, align 4
  %15 = add nsw i32 %13, %14
  %16 = sub nsw i32 %15, 7
  %17 = icmp eq i32 %16, 5
  br i1 %17, label %18, label %20

18:                                               ; preds = %12
  %19 = call i32 (i8*, ...) @printf(i8* getelementptr inbounds ([3 x i8], [3 x i8]* @.str.1, i64 0, i64 0))
  br label %20

20:                                               ; preds = %18, %12
  store i32 1, i32* %3, align 4
  %21 = load i32, i32* %2, align 4
  %22 = load i32, i32* %3, align 4
  %23 = add nsw i32 %21, %22
  %24 = icmp eq i32 %23, 5
  br i1 %24, label %25, label %27

25:                                               ; preds = %20
  %26 = call i32 (i8*, ...) @printf(i8* getelementptr inbounds ([3 x i8], [3 x i8]* @.str.2, i64 0, i64 0))
  br label %27

27:                                               ; preds = %25, %20
  %28 = load i32, i32* %2, align 4
  %29 = load i32, i32* %3, align 4
  %30 = add nsw i32 %28, %29
  %31 = sub nsw i32 %30, 7
  %32 = icmp eq i32 %31, 5
  br i1 %32, label %33, label %35

33:                                               ; preds = %27
  %34 = call i32 (i8*, ...) @printf(i8* getelementptr inbounds ([3 x i8], [3 x i8]* @.str.2, i64 0, i64 0))
  br label %35

35:                                               ; preds = %33, %27
  store i32 1, i32* %3, align 4
  %36 = load i32, i32* %2, align 4
  %37 = load i32, i32* %3, align 4
  %38 = add nsw i32 %36, %37
  %39 = icmp eq i32 %38, 5
  br i1 %39, label %40, label %42

40:                                               ; preds = %35
  %41 = call i32 (i8*, ...) @printf(i8* getelementptr inbounds ([3 x i8], [3 x i8]* @.str.3, i64 0, i64 0))
  br label %42

42:                                               ; preds = %40, %35
  %43 = load i32, i32* %2, align 4
  %44 = load i32, i32* %3, align 4
  %45 = add nsw i32 %43, %44
  %46 = sub nsw i32 %45, 7
  %47 = icmp eq i32 %46, 5
  br i1 %47, label %48, label %50

48:                                               ; preds = %42
  %49 = call i32 (i8*, ...) @printf(i8* getelementptr inbounds ([3 x i8], [3 x i8]* @.str.3, i64 0, i64 0))
  br label %50

50:                                               ; preds = %48, %42
  store i32 4, i32* %3, align 4
  %51 = load i32, i32* %2, align 4
  %52 = load i32, i32* %3, align 4
  %53 = add nsw i32 %51, %52
  %54 = icmp eq i32 %53, 5
  br i1 %54, label %55, label %57

55:                                               ; preds = %50
  %56 = call i32 (i8*, ...) @printf(i8* getelementptr inbounds ([3 x i8], [3 x i8]* @.str.4, i64 0, i64 0))
  br label %57

57:                                               ; preds = %55, %50
  %58 = load i32, i32* %2, align 4
  %59 = load i32, i32* %3, align 4
  %60 = add nsw i32 %58, %59
  %61 = sub nsw i32 %60, 7
  %62 = icmp eq i32 %61, 5
  br i1 %62, label %63, label %65

63:                                               ; preds = %57
  %64 = call i32 (i8*, ...) @printf(i8* getelementptr inbounds ([3 x i8], [3 x i8]* @.str.4, i64 0, i64 0))
  br label %65

65:                                               ; preds = %63, %57
  store i32 6, i32* %3, align 4
  %66 = load i32, i32* %2, align 4
  %67 = load i32, i32* %3, align 4
  %68 = add nsw i32 %66, %67
  %69 = icmp eq i32 %68, 5
  br i1 %69, label %70, label %72

70:                                               ; preds = %65
  %71 = call i32 (i8*, ...) @printf(i8* getelementptr inbounds ([3 x i8], [3 x i8]* @.str.5, i64 0, i64 0))
  br label %72

72:                                               ; preds = %70, %65
  %73 = load i32, i32* %2, align 4
  %74 = load i32, i32* %3, align 4
  %75 = add nsw i32 %73, %74
  %76 = sub nsw i32 %75, 7
  %77 = icmp eq i32 %76, 5
  br i1 %77, label %78, label %80

78:                                               ; preds = %72
  %79 = call i32 (i8*, ...) @printf(i8* getelementptr inbounds ([3 x i8], [3 x i8]* @.str.5, i64 0, i64 0))
  br label %80

80:                                               ; preds = %78, %72
  store i32 2, i32* %3, align 4
  %81 = load i32, i32* %2, align 4
  %82 = load i32, i32* %3, align 4
  %83 = add nsw i32 %81, %82
  %84 = icmp eq i32 %83, 5
  br i1 %84, label %85, label %87

85:                                               ; preds = %80
  %86 = call i32 (i8*, ...) @printf(i8* getelementptr inbounds ([3 x i8], [3 x i8]* @.str.6, i64 0, i64 0))
  br label %87

87:                                               ; preds = %85, %80
  %88 = load i32, i32* %2, align 4
  %89 = load i32, i32* %3, align 4
  %90 = add nsw i32 %88, %89
  %91 = sub nsw i32 %90, 7
  %92 = icmp eq i32 %91, 5
  br i1 %92, label %93, label %95

93:                                               ; preds = %87
  %94 = call i32 (i8*, ...) @printf(i8* getelementptr inbounds ([3 x i8], [3 x i8]* @.str.6, i64 0, i64 0))
  br label %95

95:                                               ; preds = %93, %87
  store i32 4, i32* %3, align 4
  %96 = load i32, i32* %2, align 4
  %97 = load i32, i32* %3, align 4
  %98 = add nsw i32 %96, %97
  %99 = icmp eq i32 %98, 5
  br i1 %99, label %100, label %102

100:                                              ; preds = %95
  %101 = call i32 (i8*, ...) @printf(i8* getelementptr inbounds ([3 x i8], [3 x i8]* @.str.7, i64 0, i64 0))
  br label %102

102:                                              ; preds = %100, %95
  %103 = load i32, i32* %2, align 4
  %104 = load i32, i32* %3, align 4
  %105 = add nsw i32 %103, %104
  %106 = sub nsw i32 %105, 7
  %107 = icmp eq i32 %106, 5
  br i1 %107, label %108, label %110

108:                                              ; preds = %102
  %109 = call i32 (i8*, ...) @printf(i8* getelementptr inbounds ([3 x i8], [3 x i8]* @.str.7, i64 0, i64 0))
  br label %110

110:                                              ; preds = %108, %102
  store i32 0, i32* %3, align 4
  %111 = load i32, i32* %2, align 4
  %112 = load i32, i32* %3, align 4
  %113 = add nsw i32 %111, %112
  %114 = icmp eq i32 %113, 5
  br i1 %114, label %115, label %117

115:                                              ; preds = %110
  %116 = call i32 (i8*, ...) @printf(i8* getelementptr inbounds ([3 x i8], [3 x i8]* @.str.8, i64 0, i64 0))
  br label %117

117:                                              ; preds = %115, %110
  %118 = load i32, i32* %2, align 4
  %119 = load i32, i32* %3, align 4
  %120 = add nsw i32 %118, %119
  %121 = sub nsw i32 %120, 7
  %122 = icmp eq i32 %121, 5
  br i1 %122, label %123, label %125

123:                                              ; preds = %117
  %124 = call i32 (i8*, ...) @printf(i8* getelementptr inbounds ([3 x i8], [3 x i8]* @.str.8, i64 0, i64 0))
  br label %125

125:                                              ; preds = %123, %117
  store i32 3, i32* %3, align 4
  %126 = load i32, i32* %2, align 4
  %127 = load i32, i32* %3, align 4
  %128 = add nsw i32 %126, %127
  %129 = icmp eq i32 %128, 5
  br i1 %129, label %130, label %132

130:                                              ; preds = %125
  %131 = call i32 (i8*, ...) @printf(i8* getelementptr inbounds ([3 x i8], [3 x i8]* @.str.9, i64 0, i64 0))
  br label %132

132:                                              ; preds = %130, %125
  %133 = load i32, i32* %2, align 4
  %134 = load i32, i32* %3, align 4
  %135 = add nsw i32 %133, %134
  %136 = sub nsw i32 %135, 7
  %137 = icmp eq i32 %136, 5
  br i1 %137, label %138, label %140

138:                                              ; preds = %132
  %139 = call i32 (i8*, ...) @printf(i8* getelementptr inbounds ([3 x i8], [3 x i8]* @.str.9, i64 0, i64 0))
  br label %140

140:                                              ; preds = %138, %132
  store i32 5, i32* %3, align 4
  %141 = load i32, i32* %2, align 4
  %142 = load i32, i32* %3, align 4
  %143 = add nsw i32 %141, %142
  %144 = icmp eq i32 %143, 5
  br i1 %144, label %145, label %147

145:                                              ; preds = %140
  %146 = call i32 (i8*, ...) @printf(i8* getelementptr inbounds ([4 x i8], [4 x i8]* @.str.10, i64 0, i64 0))
  br label %147

147:                                              ; preds = %145, %140
  %148 = load i32, i32* %2, align 4
  %149 = load i32, i32* %3, align 4
  %150 = add nsw i32 %148, %149
  %151 = sub nsw i32 %150, 7
  %152 = icmp eq i32 %151, 5
  br i1 %152, label %153, label %155

153:                                              ; preds = %147
  %154 = call i32 (i8*, ...) @printf(i8* getelementptr inbounds ([4 x i8], [4 x i8]* @.str.10, i64 0, i64 0))
  br label %155

155:                                              ; preds = %153, %147
  store i32 1, i32* %3, align 4
  %156 = load i32, i32* %2, align 4
  %157 = load i32, i32* %3, align 4
  %158 = add nsw i32 %156, %157
  %159 = icmp eq i32 %158, 5
  br i1 %159, label %160, label %162

160:                                              ; preds = %155
  %161 = call i32 (i8*, ...) @printf(i8* getelementptr inbounds ([4 x i8], [4 x i8]* @.str.11, i64 0, i64 0))
  br label %162

162:                                              ; preds = %160, %155
  %163 = load i32, i32* %2, align 4
  %164 = load i32, i32* %3, align 4
  %165 = add nsw i32 %163, %164
  %166 = sub nsw i32 %165, 7
  %167 = icmp eq i32 %166, 5
  br i1 %167, label %168, label %170

168:                                              ; preds = %162
  %169 = call i32 (i8*, ...) @printf(i8* getelementptr inbounds ([4 x i8], [4 x i8]* @.str.11, i64 0, i64 0))
  br label %170

170:                                              ; preds = %168, %162
  store i32 3, i32* %3, align 4
  %171 = load i32, i32* %2, align 4
  %172 = load i32, i32* %3, align 4
  %173 = add nsw i32 %171, %172
  %174 = icmp eq i32 %173, 5
  br i1 %174, label %175, label %177

175:                                              ; preds = %170
  %176 = call i32 (i8*, ...) @printf(i8* getelementptr inbounds ([4 x i8], [4 x i8]* @.str.12, i64 0, i64 0))
  br label %177

177:                                              ; preds = %175, %170
  %178 = load i32, i32* %2, align 4
  %179 = load i32, i32* %3, align 4
  %180 = add nsw i32 %178, %179
  %181 = sub nsw i32 %180, 7
  %182 = icmp eq i32 %181, 5
  br i1 %182, label %183, label %185

183:                                              ; preds = %177
  %184 = call i32 (i8*, ...) @printf(i8* getelementptr inbounds ([4 x i8], [4 x i8]* @.str.12, i64 0, i64 0))
  br label %185

185:                                              ; preds = %183, %177
  ret i32 0
}

declare dso_local i32 @__isoc99_scanf(i8*, ...) #1

declare dso_local i32 @printf(i8*, ...) #1


!llvm.module.flags = !{!0}
!llvm.ident = !{!1}

!0 = !{i32 1, !"wchar_size", i32 4}
!1 = !{!"clang version 10.0.0-4ubuntu1 "}
