; ModuleID = 'source-C-CXX/49/1426.c'
source_filename = "source-C-CXX/49/1426.c"
target datalayout = "e-m:e-p270:32:32-p271:32:32-p272:64:64-i64:64-f80:128-n8:16:32:64-S128"
target triple = "x86_64-pc-linux-gnu"

@.str = private unnamed_addr constant [3 x i8] c"%d\00", align 1
@str.13 = private unnamed_addr constant [3 x i8] c"12\00", align 1
@str.15 = private unnamed_addr constant [3 x i8] c"11\00", align 1
@str.17 = private unnamed_addr constant [3 x i8] c"10\00", align 1
@str.19 = private unnamed_addr constant [2 x i8] c"9\00", align 1
@str.21 = private unnamed_addr constant [2 x i8] c"8\00", align 1
@str.23 = private unnamed_addr constant [2 x i8] c"7\00", align 1
@str.25 = private unnamed_addr constant [2 x i8] c"6\00", align 1
@str.27 = private unnamed_addr constant [2 x i8] c"5\00", align 1
@str.29 = private unnamed_addr constant [2 x i8] c"4\00", align 1
@str.31 = private unnamed_addr constant [2 x i8] c"3\00", align 1
@str.33 = private unnamed_addr constant [2 x i8] c"2\00", align 1
@str.35 = private unnamed_addr constant [2 x i8] c"1\00", align 1

; Function Attrs: nofree nounwind sspstrong uwtable
define dso_local i32 @main() local_unnamed_addr #0 {
  %1 = alloca i32, align 4
  %2 = bitcast i32* %1 to i8*
  call void @llvm.lifetime.start.p0i8(i64 4, i8* nonnull %2) #4
  %3 = call i32 (i8*, ...) @__isoc99_scanf(i8* getelementptr inbounds ([3 x i8], [3 x i8]* @.str, i64 0, i64 0), i32* nonnull %1)
  %4 = load i32, i32* %1, align 4, !tbaa !5
  %5 = icmp eq i32 %4, 0
  br i1 %5, label %6, label %9

6:                                                ; preds = %0
  %7 = call i32 @puts(i8* nonnull dereferenceable(1) getelementptr inbounds ([2 x i8], [2 x i8]* @str.35, i64 0, i64 0))
  %8 = load i32, i32* %1, align 4, !tbaa !5
  br label %9

9:                                                ; preds = %6, %0
  %10 = phi i32 [ %8, %6 ], [ %4, %0 ]
  %11 = icmp eq i32 %10, 7
  br i1 %11, label %12, label %15

12:                                               ; preds = %9
  %13 = call i32 @puts(i8* nonnull dereferenceable(1) getelementptr inbounds ([2 x i8], [2 x i8]* @str.35, i64 0, i64 0))
  %14 = load i32, i32* %1, align 4, !tbaa !5
  br label %15

15:                                               ; preds = %12, %9
  %16 = phi i32 [ %14, %12 ], [ %10, %9 ]
  %17 = icmp eq i32 %16, 4
  br i1 %17, label %18, label %21

18:                                               ; preds = %15
  %19 = call i32 @puts(i8* nonnull dereferenceable(1) getelementptr inbounds ([2 x i8], [2 x i8]* @str.33, i64 0, i64 0))
  %20 = load i32, i32* %1, align 4, !tbaa !5
  br label %21

21:                                               ; preds = %18, %15
  %22 = phi i32 [ %20, %18 ], [ %16, %15 ]
  %23 = icmp eq i32 %22, 11
  br i1 %23, label %24, label %27

24:                                               ; preds = %21
  %25 = call i32 @puts(i8* nonnull dereferenceable(1) getelementptr inbounds ([2 x i8], [2 x i8]* @str.33, i64 0, i64 0))
  %26 = load i32, i32* %1, align 4, !tbaa !5
  br label %27

27:                                               ; preds = %24, %21
  %28 = phi i32 [ %26, %24 ], [ %22, %21 ]
  %29 = icmp eq i32 %28, 4
  br i1 %29, label %30, label %33

30:                                               ; preds = %27
  %31 = call i32 @puts(i8* nonnull dereferenceable(1) getelementptr inbounds ([2 x i8], [2 x i8]* @str.31, i64 0, i64 0))
  %32 = load i32, i32* %1, align 4, !tbaa !5
  br label %33

33:                                               ; preds = %30, %27
  %34 = phi i32 [ %32, %30 ], [ %28, %27 ]
  %35 = icmp eq i32 %34, 11
  br i1 %35, label %36, label %39

36:                                               ; preds = %33
  %37 = call i32 @puts(i8* nonnull dereferenceable(1) getelementptr inbounds ([2 x i8], [2 x i8]* @str.31, i64 0, i64 0))
  %38 = load i32, i32* %1, align 4, !tbaa !5
  br label %39

39:                                               ; preds = %36, %33
  %40 = phi i32 [ %38, %36 ], [ %34, %33 ]
  %41 = icmp eq i32 %40, 1
  br i1 %41, label %42, label %45

42:                                               ; preds = %39
  %43 = call i32 @puts(i8* nonnull dereferenceable(1) getelementptr inbounds ([2 x i8], [2 x i8]* @str.29, i64 0, i64 0))
  %44 = load i32, i32* %1, align 4, !tbaa !5
  br label %45

45:                                               ; preds = %42, %39
  %46 = phi i32 [ %44, %42 ], [ %40, %39 ]
  %47 = icmp eq i32 %46, 8
  br i1 %47, label %48, label %51

48:                                               ; preds = %45
  %49 = call i32 @puts(i8* nonnull dereferenceable(1) getelementptr inbounds ([2 x i8], [2 x i8]* @str.29, i64 0, i64 0))
  %50 = load i32, i32* %1, align 4, !tbaa !5
  br label %51

51:                                               ; preds = %48, %45
  %52 = phi i32 [ %50, %48 ], [ %46, %45 ]
  %53 = icmp eq i32 %52, -1
  br i1 %53, label %54, label %57

54:                                               ; preds = %51
  %55 = call i32 @puts(i8* nonnull dereferenceable(1) getelementptr inbounds ([2 x i8], [2 x i8]* @str.27, i64 0, i64 0))
  %56 = load i32, i32* %1, align 4, !tbaa !5
  br label %57

57:                                               ; preds = %54, %51
  %58 = phi i32 [ %56, %54 ], [ %52, %51 ]
  %59 = icmp eq i32 %58, 6
  br i1 %59, label %60, label %63

60:                                               ; preds = %57
  %61 = call i32 @puts(i8* nonnull dereferenceable(1) getelementptr inbounds ([2 x i8], [2 x i8]* @str.27, i64 0, i64 0))
  %62 = load i32, i32* %1, align 4, !tbaa !5
  br label %63

63:                                               ; preds = %60, %57
  %64 = phi i32 [ %62, %60 ], [ %58, %57 ]
  %65 = icmp eq i32 %64, 3
  br i1 %65, label %66, label %69

66:                                               ; preds = %63
  %67 = call i32 @puts(i8* nonnull dereferenceable(1) getelementptr inbounds ([2 x i8], [2 x i8]* @str.25, i64 0, i64 0))
  %68 = load i32, i32* %1, align 4, !tbaa !5
  br label %69

69:                                               ; preds = %66, %63
  %70 = phi i32 [ %68, %66 ], [ %64, %63 ]
  %71 = icmp eq i32 %70, 10
  br i1 %71, label %72, label %75

72:                                               ; preds = %69
  %73 = call i32 @puts(i8* nonnull dereferenceable(1) getelementptr inbounds ([2 x i8], [2 x i8]* @str.25, i64 0, i64 0))
  %74 = load i32, i32* %1, align 4, !tbaa !5
  br label %75

75:                                               ; preds = %72, %69
  %76 = phi i32 [ %74, %72 ], [ %70, %69 ]
  %77 = icmp eq i32 %76, 1
  br i1 %77, label %78, label %81

78:                                               ; preds = %75
  %79 = call i32 @puts(i8* nonnull dereferenceable(1) getelementptr inbounds ([2 x i8], [2 x i8]* @str.23, i64 0, i64 0))
  %80 = load i32, i32* %1, align 4, !tbaa !5
  br label %81

81:                                               ; preds = %78, %75
  %82 = phi i32 [ %80, %78 ], [ %76, %75 ]
  %83 = icmp eq i32 %82, 8
  br i1 %83, label %84, label %87

84:                                               ; preds = %81
  %85 = call i32 @puts(i8* nonnull dereferenceable(1) getelementptr inbounds ([2 x i8], [2 x i8]* @str.23, i64 0, i64 0))
  %86 = load i32, i32* %1, align 4, !tbaa !5
  br label %87

87:                                               ; preds = %84, %81
  %88 = phi i32 [ %86, %84 ], [ %82, %81 ]
  %89 = icmp eq i32 %88, 5
  br i1 %89, label %90, label %93

90:                                               ; preds = %87
  %91 = call i32 @puts(i8* nonnull dereferenceable(1) getelementptr inbounds ([2 x i8], [2 x i8]* @str.21, i64 0, i64 0))
  %92 = load i32, i32* %1, align 4, !tbaa !5
  br label %93

93:                                               ; preds = %90, %87
  %94 = phi i32 [ %92, %90 ], [ %88, %87 ]
  %95 = icmp eq i32 %94, 12
  br i1 %95, label %96, label %99

96:                                               ; preds = %93
  %97 = call i32 @puts(i8* nonnull dereferenceable(1) getelementptr inbounds ([2 x i8], [2 x i8]* @str.21, i64 0, i64 0))
  %98 = load i32, i32* %1, align 4, !tbaa !5
  br label %99

99:                                               ; preds = %96, %93
  %100 = phi i32 [ %98, %96 ], [ %94, %93 ]
  %101 = icmp eq i32 %100, 2
  br i1 %101, label %102, label %105

102:                                              ; preds = %99
  %103 = call i32 @puts(i8* nonnull dereferenceable(1) getelementptr inbounds ([2 x i8], [2 x i8]* @str.19, i64 0, i64 0))
  %104 = load i32, i32* %1, align 4, !tbaa !5
  br label %105

105:                                              ; preds = %102, %99
  %106 = phi i32 [ %104, %102 ], [ %100, %99 ]
  %107 = icmp eq i32 %106, 9
  br i1 %107, label %108, label %111

108:                                              ; preds = %105
  %109 = call i32 @puts(i8* nonnull dereferenceable(1) getelementptr inbounds ([2 x i8], [2 x i8]* @str.19, i64 0, i64 0))
  %110 = load i32, i32* %1, align 4, !tbaa !5
  br label %111

111:                                              ; preds = %108, %105
  %112 = phi i32 [ %110, %108 ], [ %106, %105 ]
  %113 = icmp eq i32 %112, 0
  br i1 %113, label %114, label %117

114:                                              ; preds = %111
  %115 = call i32 @puts(i8* nonnull dereferenceable(1) getelementptr inbounds ([3 x i8], [3 x i8]* @str.17, i64 0, i64 0))
  %116 = load i32, i32* %1, align 4, !tbaa !5
  br label %117

117:                                              ; preds = %114, %111
  %118 = phi i32 [ %116, %114 ], [ %112, %111 ]
  %119 = icmp eq i32 %118, 7
  br i1 %119, label %120, label %123

120:                                              ; preds = %117
  %121 = call i32 @puts(i8* nonnull dereferenceable(1) getelementptr inbounds ([3 x i8], [3 x i8]* @str.17, i64 0, i64 0))
  %122 = load i32, i32* %1, align 4, !tbaa !5
  br label %123

123:                                              ; preds = %120, %117
  %124 = phi i32 [ %122, %120 ], [ %118, %117 ]
  %125 = icmp eq i32 %124, 4
  br i1 %125, label %126, label %129

126:                                              ; preds = %123
  %127 = call i32 @puts(i8* nonnull dereferenceable(1) getelementptr inbounds ([3 x i8], [3 x i8]* @str.15, i64 0, i64 0))
  %128 = load i32, i32* %1, align 4, !tbaa !5
  br label %129

129:                                              ; preds = %126, %123
  %130 = phi i32 [ %128, %126 ], [ %124, %123 ]
  %131 = icmp eq i32 %130, 11
  br i1 %131, label %132, label %135

132:                                              ; preds = %129
  %133 = call i32 @puts(i8* nonnull dereferenceable(1) getelementptr inbounds ([3 x i8], [3 x i8]* @str.15, i64 0, i64 0))
  %134 = load i32, i32* %1, align 4, !tbaa !5
  br label %135

135:                                              ; preds = %132, %129
  %136 = phi i32 [ %134, %132 ], [ %130, %129 ]
  %137 = icmp eq i32 %136, 2
  br i1 %137, label %138, label %141

138:                                              ; preds = %135
  %139 = call i32 @puts(i8* nonnull dereferenceable(1) getelementptr inbounds ([3 x i8], [3 x i8]* @str.13, i64 0, i64 0))
  %140 = load i32, i32* %1, align 4, !tbaa !5
  br label %141

141:                                              ; preds = %138, %135
  %142 = phi i32 [ %140, %138 ], [ %136, %135 ]
  %143 = icmp eq i32 %142, 9
  br i1 %143, label %144, label %146

144:                                              ; preds = %141
  %145 = call i32 @puts(i8* nonnull dereferenceable(1) getelementptr inbounds ([3 x i8], [3 x i8]* @str.13, i64 0, i64 0))
  br label %146

146:                                              ; preds = %144, %141
  call void @llvm.lifetime.end.p0i8(i64 4, i8* nonnull %2) #4
  ret i32 0
}

; Function Attrs: argmemonly mustprogress nofree nosync nounwind willreturn
declare void @llvm.lifetime.start.p0i8(i64 immarg, i8* nocapture) #1

; Function Attrs: nofree nounwind
declare noundef i32 @__isoc99_scanf(i8* nocapture noundef readonly, ...) local_unnamed_addr #2

; Function Attrs: argmemonly mustprogress nofree nosync nounwind willreturn
declare void @llvm.lifetime.end.p0i8(i64 immarg, i8* nocapture) #1

; Function Attrs: nofree nounwind
declare noundef i32 @puts(i8* nocapture noundef readonly) local_unnamed_addr #3


!llvm.module.flags = !{!0, !1, !2, !3}
!llvm.ident = !{!4}

!0 = !{i32 1, !"wchar_size", i32 4}
!1 = !{i32 7, !"PIC Level", i32 2}
!2 = !{i32 7, !"PIE Level", i32 2}
!3 = !{i32 7, !"uwtable", i32 1}
!4 = !{!"clang version 13.0.0"}
!5 = !{!6, !6, i64 0}
!6 = !{!"int", !7, i64 0}
!7 = !{!"omnipotent char", !8, i64 0}
!8 = !{!"Simple C/C++ TBAA"}
